target datalayout = "e-m:e-p270:32:32-p271:32:32-p272:64:64-i64:64-i128:128-f80:128-n8:16:32:64-S128"
target triple = "x86_64-pc-linux-gnu"

@hf_wai_length = internal global i32 0, align 4
@hf_wai_attr_type = internal global i32 0, align 4
@hf_wai_identity = internal global i32 0, align 4
@hf_wai_identity_id = internal global i32 0, align 4
@hf_wai_identity_len = internal global i32 0, align 4
@hf_wai_identity_data = internal global i32 0, align 4
@hf_wai_identity_list = internal global i32 0, align 4
@hf_wai_reserved_byte = internal global i32 0, align 4
@hf_wai_no_of_ids = internal global i32 0, align 4
@ett_wai_identity = internal global i32 0, align 4
@ett_wai_identity_list = internal global i32 0, align 4
@.str.227 = private unnamed_addr constant [11 x i8] c"%sIdentity\00", align 1
@.str.228 = private unnamed_addr constant [1 x i8] zeroinitializer, align 1
@.str.239 = private unnamed_addr constant [3 x i8] c"%d\00", align 1

; Function Attrs: nounwind uwtable
define internal zeroext i16 @dissect_identity(ptr noundef %0, i16 noundef zeroext %1, ptr noundef %2, ptr noundef %3) #0 {
  %5 = alloca ptr, align 8
  %6 = alloca i16, align 2
  %7 = alloca ptr, align 8
  %8 = alloca ptr, align 8
  %9 = alloca ptr, align 8
  %10 = alloca ptr, align 8
  %11 = alloca i16, align 2
  store ptr %0, ptr %5, align 8
  store i16 %1, ptr %6, align 2
  store ptr %2, ptr %7, align 8
  store ptr %3, ptr %8, align 8
  %12 = load ptr, ptr %5, align 8
  %13 = load i16, ptr %6, align 2
  %14 = zext i16 %13 to i32
  %15 = add i32 %14, 2
  %16 = call zeroext i16 @tvb_get_ntohs(ptr noundef %12, i32 noundef %15)
  store i16 %16, ptr %11, align 2
  %17 = load ptr, ptr %7, align 8
  %18 = load i32, ptr @hf_wai_identity, align 4
  %19 = load ptr, ptr %5, align 8
  %20 = load i16, ptr %6, align 2
  %21 = zext i16 %20 to i32
  %22 = load i16, ptr %11, align 2
  %23 = zext i16 %22 to i32
  %24 = add i32 %23, 4
  %25 = call ptr @proto_tree_add_item(ptr noundef %17, i32 noundef %18, ptr noundef %19, i32 noundef %21, i32 noundef %24, i32 noundef 0)
  store ptr %25, ptr %10, align 8
  %26 = load ptr, ptr %10, align 8
  %27 = load i32, ptr @ett_wai_identity, align 4
  %28 = call ptr @proto_item_add_subtree(ptr noundef %26, i32 noundef %27)
  store ptr %28, ptr %9, align 8
  %29 = load ptr, ptr %10, align 8
  %30 = load ptr, ptr %8, align 8
  %31 = icmp eq ptr %30, null
  br i1 %31, label %32, label %33

32:                                               ; preds = %4
  br label %35

33:                                               ; preds = %4
  %34 = load ptr, ptr %8, align 8
  br label %35

35:                                               ; preds = %33, %32
  %36 = phi ptr [ @.str.228, %32 ], [ %34, %33 ]
  call void (ptr, ptr, ...) @proto_item_set_text(ptr noundef %29, ptr noundef @.str.227, ptr noundef %36)
  %37 = load ptr, ptr %9, align 8
  %38 = load i32, ptr @hf_wai_identity_id, align 4
  %39 = load ptr, ptr %5, align 8
  %40 = load i16, ptr %6, align 2
  %41 = zext i16 %40 to i32
  %42 = call ptr @proto_tree_add_item(ptr noundef %37, i32 noundef %38, ptr noundef %39, i32 noundef %41, i32 noundef 2, i32 noundef 0)
  %43 = load ptr, ptr %9, align 8
  %44 = load i32, ptr @hf_wai_identity_len, align 4
  %45 = load ptr, ptr %5, align 8
  %46 = load i16, ptr %6, align 2
  %47 = zext i16 %46 to i32
  %48 = add i32 %47, 2
  %49 = call ptr @proto_tree_add_item(ptr noundef %43, i32 noundef %44, ptr noundef %45, i32 noundef %48, i32 noundef 2, i32 noundef 0)
  %50 = load ptr, ptr %9, align 8
  %51 = load i32, ptr @hf_wai_identity_data, align 4
  %52 = load ptr, ptr %5, align 8
  %53 = load i16, ptr %6, align 2
  %54 = zext i16 %53 to i32
  %55 = add i32 %54, 4
  %56 = load i16, ptr %11, align 2
  %57 = zext i16 %56 to i32
  %58 = call ptr @proto_tree_add_item(ptr noundef %50, i32 noundef %51, ptr noundef %52, i32 noundef %55, i32 noundef %57, i32 noundef 0)
  %59 = load i16, ptr %11, align 2
  %60 = zext i16 %59 to i32
  %61 = add i32 %60, 4
  %62 = trunc i32 %61 to i16
  ret i16 %62
}

; Function Attrs: nounwind uwtable
define internal i32 @dissect_identity_list(ptr noundef %0, i32 noundef %1, ptr noundef %2) #0 {
  %4 = alloca ptr, align 8
  %5 = alloca i32, align 4
  %6 = alloca ptr, align 8
  %7 = alloca ptr, align 8
  %8 = alloca ptr, align 8
  %9 = alloca i16, align 2
  %10 = alloca i16, align 2
  %11 = alloca i16, align 2
  %12 = alloca [4 x i8], align 1
  store ptr %0, ptr %4, align 8
  store i32 %1, ptr %5, align 4
  store ptr %2, ptr %6, align 8
  %13 = load ptr, ptr %4, align 8
  %14 = load i32, ptr %5, align 4
  %15 = add i32 %14, 1
  %16 = call zeroext i16 @tvb_get_ntohs(ptr noundef %13, i32 noundef %15)
  store i16 %16, ptr %9, align 2
  %17 = load ptr, ptr %6, align 8
  %18 = load i32, ptr @hf_wai_identity_list, align 4
  %19 = load ptr, ptr %4, align 8
  %20 = load i32, ptr %5, align 4
  %21 = load i16, ptr %9, align 2
  %22 = zext i16 %21 to i32
  %23 = add i32 %22, 3
  %24 = call ptr @proto_tree_add_item(ptr noundef %17, i32 noundef %18, ptr noundef %19, i32 noundef %20, i32 noundef %23, i32 noundef 0)
  store ptr %24, ptr %7, align 8
  %25 = load ptr, ptr %7, align 8
  %26 = load i32, ptr @ett_wai_identity_list, align 4
  %27 = call ptr @proto_item_add_subtree(ptr noundef %25, i32 noundef %26)
  store ptr %27, ptr %8, align 8
  %28 = load ptr, ptr %8, align 8
  %29 = load i32, ptr @hf_wai_attr_type, align 4
  %30 = load ptr, ptr %4, align 8
  %31 = load i32, ptr %5, align 4
  %32 = call ptr @proto_tree_add_item(ptr noundef %28, i32 noundef %29, ptr noundef %30, i32 noundef %31, i32 noundef 1, i32 noundef 0)
  %33 = load i32, ptr %5, align 4
  %34 = add i32 %33, 1
  store i32 %34, ptr %5, align 4
  %35 = load ptr, ptr %8, align 8
  %36 = load i32, ptr @hf_wai_length, align 4
  %37 = load ptr, ptr %4, align 8
  %38 = load i32, ptr %5, align 4
  %39 = call ptr @proto_tree_add_item(ptr noundef %35, i32 noundef %36, ptr noundef %37, i32 noundef %38, i32 noundef 2, i32 noundef 0)
  %40 = load i32, ptr %5, align 4
  %41 = add i32 %40, 2
  store i32 %41, ptr %5, align 4
  %42 = load ptr, ptr %8, align 8
  %43 = load i32, ptr @hf_wai_reserved_byte, align 4
  %44 = load ptr, ptr %4, align 8
  %45 = load i32, ptr %5, align 4
  %46 = call ptr @proto_tree_add_item(ptr noundef %42, i32 noundef %43, ptr noundef %44, i32 noundef %45, i32 noundef 1, i32 noundef 0)
  %47 = load i32, ptr %5, align 4
  %48 = add i32 %47, 1
  store i32 %48, ptr %5, align 4
  %49 = load ptr, ptr %8, align 8
  %50 = load i32, ptr @hf_wai_no_of_ids, align 4
  %51 = load ptr, ptr %4, align 8
  %52 = load i32, ptr %5, align 4
  %53 = call ptr @proto_tree_add_item(ptr noundef %49, i32 noundef %50, ptr noundef %51, i32 noundef %52, i32 noundef 2, i32 noundef 0)
  %54 = load ptr, ptr %4, align 8
  %55 = load i32, ptr %5, align 4
  %56 = call zeroext i16 @tvb_get_ntohs(ptr noundef %54, i32 noundef %55)
  store i16 %56, ptr %10, align 2
  %57 = load i32, ptr %5, align 4
  %58 = add i32 %57, 2
  store i32 %58, ptr %5, align 4
  store i16 0, ptr %11, align 2
  br label %59

59:                                               ; preds = %79, %3
  %60 = load i16, ptr %11, align 2
  %61 = zext i16 %60 to i32
  %62 = load i16, ptr %10, align 2
  %63 = zext i16 %62 to i32
  %64 = icmp slt i32 %61, %63
  br i1 %64, label %65, label %82

65:                                               ; preds = %59
  call void @llvm.memset.p0.i64(ptr align 1 %12, i8 0, i64 4, i1 false)
  %66 = getelementptr inbounds [4 x i8], ptr %12, i64 0, i64 0
  %67 = load i16, ptr %11, align 2
  %68 = zext i16 %67 to i32
  %69 = call i32 (ptr, i64, ptr, ...) @snprintf(ptr noundef %66, i64 noundef 4, ptr noundef @.str.239, i32 noundef %68) #4
  %70 = load ptr, ptr %4, align 8
  %71 = load i32, ptr %5, align 4
  %72 = trunc i32 %71 to i16
  %73 = load ptr, ptr %8, align 8
  %74 = getelementptr inbounds [4 x i8], ptr %12, i64 0, i64 0
  %75 = call zeroext i16 @dissect_identity(ptr noundef %70, i16 noundef zeroext %72, ptr noundef %73, ptr noundef %74)
  %76 = zext i16 %75 to i32
  %77 = load i32, ptr %5, align 4
  %78 = add i32 %77, %76
  store i32 %78, ptr %5, align 4
  br label %79

79:                                               ; preds = %65
  %80 = load i16, ptr %11, align 2
  %81 = add i16 %80, 1
  store i16 %81, ptr %11, align 2
  br label %59, !llvm.loop !4

82:                                               ; preds = %59
  %83 = load i16, ptr %9, align 2
  %84 = zext i16 %83 to i32
  %85 = add i32 %84, 3
  ret i32 %85
}