; Function Attrs: nounwind uwtable
define internal fastcc range(i32 3, 65539) i32 @dissect_identity_list(ptr noundef %0, i32 noundef range(i32 0, 65536) %1, ptr noundef %2) unnamed_addr #0 {
  %4 = alloca [4 x i8], align 4
  %5 = add nuw nsw i32 %1, 1
  %6 = tail call zeroext i16 @tvb_get_ntohs(ptr noundef %0, i32 noundef %5) #3
  %7 = load i32, ptr @hf_wai_identity_list, align 4
  %8 = zext i16 %6 to i32
  %9 = add nuw nsw i32 %8, 3
  %10 = tail call ptr @proto_tree_add_item(ptr noundef %2, i32 noundef %7, ptr noundef %0, i32 noundef %1, i32 noundef %9, i32 noundef 0) #3
  %11 = load i32, ptr @ett_wai_identity_list, align 4
  %12 = tail call ptr @proto_item_add_subtree(ptr noundef %10, i32 noundef %11) #3
  %13 = load i32, ptr @hf_wai_attr_type, align 4
  %14 = tail call ptr @proto_tree_add_item(ptr noundef %12, i32 noundef %13, ptr noundef %0, i32 noundef %1, i32 noundef 1, i32 noundef 0) #3
  %15 = load i32, ptr @hf_wai_length, align 4
  %16 = tail call ptr @proto_tree_add_item(ptr noundef %12, i32 noundef %15, ptr noundef %0, i32 noundef %5, i32 noundef 2, i32 noundef 0) #3
  %17 = add nuw nsw i32 %1, 3
  %18 = load i32, ptr @hf_wai_reserved_byte, align 4
  %19 = tail call ptr @proto_tree_add_item(ptr noundef %12, i32 noundef %18, ptr noundef %0, i32 noundef %17, i32 noundef 1, i32 noundef 0) #3
  %20 = add nuw nsw i32 %1, 4
  %21 = load i32, ptr @hf_wai_no_of_ids, align 4
  %22 = tail call ptr @proto_tree_add_item(ptr noundef %12, i32 noundef %21, ptr noundef %0, i32 noundef %20, i32 noundef 2, i32 noundef 0) #3
  %23 = tail call zeroext i16 @tvb_get_ntohs(ptr noundef %0, i32 noundef %20) #3
  %.not = icmp eq i16 %23, 0
  br i1 %.not, label %._crit_edge, label %.lr.ph.preheader

.lr.ph.preheader:                                 ; preds = %3
  %24 = add nuw nsw i32 %1, 6
  %wide.trip.count = zext i16 %23 to i32
  br label %.lr.ph

.lr.ph:                                           ; preds = %.lr.ph.preheader, %.lr.ph
  %indvars.iv = phi i32 [ 0, %.lr.ph.preheader ], [ %indvars.iv.next, %.lr.ph ]
  %.03335 = phi i32 [ %24, %.lr.ph.preheader ], [ %42, %.lr.ph ]
  store i32 0, ptr %4, align 4
  %25 = call i32 (ptr, i64, ptr, ...) @snprintf(ptr noundef nonnull dereferenceable(1) %4, i64 noundef 4, ptr noundef nonnull @.str.239, i32 noundef %indvars.iv) #3
  %26 = and i32 %.03335, 65535
  %27 = add nuw nsw i32 %26, 2
  %28 = call zeroext i16 @tvb_get_ntohs(ptr noundef %0, i32 noundef %27) #3
  %29 = load i32, ptr @hf_wai_identity, align 4
  %30 = zext i16 %28 to i32
  %31 = add nuw nsw i32 %30, 4
  %32 = call ptr @proto_tree_add_item(ptr noundef %12, i32 noundef %29, ptr noundef %0, i32 noundef %26, i32 noundef %31, i32 noundef 0) #3
  %33 = load i32, ptr @ett_wai_identity, align 4
  %34 = call ptr @proto_item_add_subtree(ptr noundef %32, i32 noundef %33) #3
  call void (ptr, ptr, ...) @proto_item_set_text(ptr noundef %32, ptr noundef nonnull @.str.227, ptr noundef nonnull %4) #3
  %35 = load i32, ptr @hf_wai_identity_id, align 4
  %36 = call ptr @proto_tree_add_item(ptr noundef %34, i32 noundef %35, ptr noundef %0, i32 noundef %26, i32 noundef 2, i32 noundef 0) #3
  %37 = load i32, ptr @hf_wai_identity_len, align 4
  %38 = call ptr @proto_tree_add_item(ptr noundef %34, i32 noundef %37, ptr noundef %0, i32 noundef %27, i32 noundef 2, i32 noundef 0) #3
  %39 = load i32, ptr @hf_wai_identity_data, align 4
  %40 = add nuw nsw i32 %26, 4
  %41 = call ptr @proto_tree_add_item(ptr noundef %34, i32 noundef %39, ptr noundef %0, i32 noundef %40, i32 noundef %30, i32 noundef 0) #3
  %42 = add i32 %31, %.03335
  %indvars.iv.next = add nuw nsw i32 %indvars.iv, 1
  %exitcond.not = icmp eq i32 %indvars.iv.next, %wide.trip.count
  br i1 %exitcond.not, label %._crit_edge, label %.lr.ph, !llvm.loop !4

._crit_edge:                                      ; preds = %.lr.ph, %3
  ret i32 %9
}